; Function Attrs: mustprogress uwtable
define void @_ZN6icu_7714StringReplacerC2ERKNS_13UnicodeStringEPKNS_23TransliterationRuleDataE(ptr noundef nonnull align 8 dereferenceable(96) initializes((0, 26)) %0, ptr noundef nonnull align 8 dereferenceable(64) %1, ptr noundef %2) unnamed_addr #1 align 2 personality ptr @__gxx_personality_v0 {
  %4 = getelementptr inbounds nuw i8, ptr %0, i64 8
  store ptr getelementptr inbounds nuw inrange(-16, 80) (i8, ptr @_ZTVN6icu_7714StringReplacerE, i64 16), ptr %0, align 8, !tbaa !15
  store ptr getelementptr inbounds nuw inrange(-16, 40) (i8, ptr @_ZTVN6icu_7714StringReplacerE, i64 112), ptr %4, align 8, !tbaa !15
  %5 = getelementptr inbounds nuw i8, ptr %0, i64 16
  store ptr getelementptr inbounds nuw inrange(-16, 88) (i8, ptr @_ZTVN6icu_7713UnicodeStringE, i64 16), ptr %5, align 8, !tbaa !15
  %6 = getelementptr inbounds nuw i8, ptr %0, i64 24
  store i16 2, ptr %6, align 8, !tbaa !17
  %7 = invoke noundef nonnull align 8 dereferenceable(64) ptr @_ZN6icu_7713UnicodeStringaSERKS0_(ptr noundef nonnull align 8 dereferenceable(64) %5, ptr noundef nonnull align 8 dereferenceable(64) %1)
          to label %8 unwind label %13

8:                                                ; preds = %3
  %9 = getelementptr inbounds nuw i8, ptr %0, i64 80
  store i32 0, ptr %9, align 8, !tbaa !18
  %10 = getelementptr inbounds nuw i8, ptr %0, i64 84
  store i8 0, ptr %10, align 4, !tbaa !26
  %11 = getelementptr inbounds nuw i8, ptr %0, i64 88
  store ptr %2, ptr %11, align 8, !tbaa !27
  %12 = getelementptr inbounds nuw i8, ptr %0, i64 85
  store i8 1, ptr %12, align 1, !tbaa !28
  ret void

13:                                               ; preds = %3
  %14 = landingpad { ptr, i32 }
          cleanup
  tail call void @_ZN6icu_7713UnicodeStringD1Ev(ptr noundef nonnull align 8 dereferenceable(64) %5) #17
  tail call void @_ZN6icu_7714UnicodeFunctorD2Ev(ptr noundef nonnull align 8 dereferenceable(8) %0) #17
  resume { ptr, i32 } %14
}